target datalayout = "e-m:e-p270:32:32-p271:32:32-p272:64:64-i64:64-i128:128-f80:128-n8:16:32:64-S128"
target triple = "x86_64-pc-linux-gnu"

@.str = private unnamed_addr constant [34 x i8] c"../openssl/crypto/asn1/asn1_gen.c\00", align 1
@__func__.parse_tagging = private unnamed_addr constant [14 x i8] c"parse_tagging\00", align 1
@.str.54 = private unnamed_addr constant [8 x i8] c"Char=%c\00", align 1

; Function Attrs: nounwind uwtable
define internal i32 @parse_tagging(ptr noundef %0, i32 noundef %1, ptr noundef %2, ptr noundef %3) #0 {
  %5 = alloca i32, align 4
  %6 = alloca ptr, align 8
  %7 = alloca i32, align 4
  %8 = alloca ptr, align 8
  %9 = alloca ptr, align 8
  %10 = alloca i64, align 8
  %11 = alloca ptr, align 8
  %12 = alloca i32, align 4
  store ptr %0, ptr %6, align 8, !tbaa !3
  store i32 %1, ptr %7, align 4, !tbaa !12
  store ptr %2, ptr %8, align 8, !tbaa !16
  store ptr %3, ptr %9, align 8, !tbaa !16
  call void @llvm.lifetime.start.p0(i64 8, ptr %10) #7
  call void @llvm.lifetime.start.p0(i64 8, ptr %11) #7
  %13 = load ptr, ptr %6, align 8, !tbaa !3
  %14 = icmp ne ptr %13, null
  br i1 %14, label %16, label %15

15:                                               ; preds = %4
  store i32 0, ptr %5, align 4
  store i32 1, ptr %12, align 4
  br label %78

16:                                               ; preds = %4
  %17 = load ptr, ptr %6, align 8, !tbaa !3
  %18 = call i64 @strtoul(ptr noundef %17, ptr noundef %11, i32 noundef 10) #7
  store i64 %18, ptr %10, align 8, !tbaa !18
  %19 = load ptr, ptr %11, align 8, !tbaa !3
  %20 = icmp ne ptr %19, null
  br i1 %20, label %21, label %34

21:                                               ; preds = %16
  %22 = load ptr, ptr %11, align 8, !tbaa !3
  %23 = load i8, ptr %22, align 1, !tbaa !36
  %24 = sext i8 %23 to i32
  %25 = icmp ne i32 %24, 0
  br i1 %25, label %26, label %34

26:                                               ; preds = %21
  %27 = load ptr, ptr %11, align 8, !tbaa !3
  %28 = load ptr, ptr %6, align 8, !tbaa !3
  %29 = load i32, ptr %7, align 4, !tbaa !12
  %30 = sext i32 %29 to i64
  %31 = getelementptr inbounds i8, ptr %28, i64 %30
  %32 = icmp ugt ptr %27, %31
  br i1 %32, label %33, label %34

33:                                               ; preds = %26
  store i32 0, ptr %5, align 4
  store i32 1, ptr %12, align 4
  br label %78

34:                                               ; preds = %26, %21, %16
  %35 = load i64, ptr %10, align 8, !tbaa !18
  %36 = icmp slt i64 %35, 0
  br i1 %36, label %37, label %38

37:                                               ; preds = %34
  call void @ERR_new()
  call void @ERR_set_debug(ptr noundef @.str, i32 noundef 359, ptr noundef @__func__.parse_tagging)
  call void (i32, i32, ptr, ...) @ERR_set_error(i32 noundef 13, i32 noundef 187, ptr noundef null)
  store i32 0, ptr %5, align 4
  store i32 1, ptr %12, align 4
  br label %78

38:                                               ; preds = %34
  %39 = load i64, ptr %10, align 8, !tbaa !18
  %40 = trunc i64 %39 to i32
  %41 = load ptr, ptr %8, align 8, !tbaa !16
  store i32 %40, ptr %41, align 4, !tbaa !12
  %42 = load ptr, ptr %11, align 8, !tbaa !3
  %43 = icmp ne ptr %42, null
  br i1 %43, label %44, label %54

44:                                               ; preds = %38
  %45 = load ptr, ptr %11, align 8, !tbaa !3
  %46 = load ptr, ptr %6, align 8, !tbaa !3
  %47 = ptrtoint ptr %45 to i64
  %48 = ptrtoint ptr %46 to i64
  %49 = sub i64 %47, %48
  %50 = load i32, ptr %7, align 4, !tbaa !12
  %51 = sext i32 %50 to i64
  %52 = sub nsw i64 %51, %49
  %53 = trunc i64 %52 to i32
  store i32 %53, ptr %7, align 4, !tbaa !12
  br label %55

54:                                               ; preds = %38
  store i32 0, ptr %7, align 4, !tbaa !12
  br label %55

55:                                               ; preds = %54, %44
  %56 = load i32, ptr %7, align 4, !tbaa !12
  %57 = icmp ne i32 %56, 0
  br i1 %57, label %58, label %75

58:                                               ; preds = %55
  %59 = load ptr, ptr %11, align 8, !tbaa !3
  %60 = load i8, ptr %59, align 1, !tbaa !36
  %61 = sext i8 %60 to i32
  switch i32 %61, label %70 [
    i32 85, label %62
    i32 65, label %64
    i32 80, label %66
    i32 67, label %68
  ]

62:                                               ; preds = %58
  %63 = load ptr, ptr %9, align 8, !tbaa !16
  store i32 0, ptr %63, align 4, !tbaa !12
  br label %74

64:                                               ; preds = %58
  %65 = load ptr, ptr %9, align 8, !tbaa !16
  store i32 64, ptr %65, align 4, !tbaa !12
  br label %74

66:                                               ; preds = %58
  %67 = load ptr, ptr %9, align 8, !tbaa !16
  store i32 192, ptr %67, align 4, !tbaa !12
  br label %74

68:                                               ; preds = %58
  %69 = load ptr, ptr %9, align 8, !tbaa !16
  store i32 128, ptr %69, align 4, !tbaa !12
  br label %74

70:                                               ; preds = %58
  call void @ERR_new()
  call void @ERR_set_debug(ptr noundef @.str, i32 noundef 388, ptr noundef @__func__.parse_tagging)
  %71 = load ptr, ptr %11, align 8, !tbaa !3
  %72 = load i8, ptr %71, align 1, !tbaa !36
  %73 = sext i8 %72 to i32
  call void (i32, i32, ptr, ...) @ERR_set_error(i32 noundef 13, i32 noundef 186, ptr noundef @.str.54, i32 noundef %73)
  store i32 0, ptr %5, align 4
  store i32 1, ptr %12, align 4
  br label %78

74:                                               ; preds = %68, %66, %64, %62
  br label %77

75:                                               ; preds = %55
  %76 = load ptr, ptr %9, align 8, !tbaa !16
  store i32 128, ptr %76, align 4, !tbaa !12
  br label %77

77:                                               ; preds = %75, %74
  store i32 1, ptr %5, align 4
  store i32 1, ptr %12, align 4
  br label %78

78:                                               ; preds = %77, %70, %37, %33, %15
  call void @llvm.lifetime.end.p0(i64 8, ptr %11) #7
  call void @llvm.lifetime.end.p0(i64 8, ptr %10) #7
  %79 = load i32, ptr %5, align 4
  ret i32 %79
}