; Function Attrs: nounwind uwtable
define internal fastcc range(i32 0, 2) i32 @parse_tagging(ptr noundef %0, i32 noundef %1, ptr noundef writeonly captures(none) %2, ptr noundef writeonly captures(none) %3) unnamed_addr #0 {
  %5 = alloca ptr, align 8
  call void @llvm.lifetime.start.p0(i64 8, ptr nonnull %5) #7
  %.not = icmp eq ptr %0, null
  br i1 %.not, label %32, label %6

6:                                                ; preds = %4
  %7 = call i64 @strtoul(ptr noundef nonnull %0, ptr noundef nonnull %5, i32 noundef 10) #7
  %8 = load ptr, ptr %5, align 8, !tbaa !7
  %.not20 = icmp eq ptr %8, null
  br i1 %.not20, label %14, label %9

9:                                                ; preds = %6
  %10 = load i8, ptr %8, align 1, !tbaa !23
  %.not21 = icmp ne i8 %10, 0
  %11 = sext i32 %1 to i64
  %12 = getelementptr inbounds i8, ptr %0, i64 %11
  %13 = icmp ugt ptr %8, %12
  %or.cond = select i1 %.not21, i1 %13, i1 false
  br i1 %or.cond, label %32, label %14

14:                                               ; preds = %9, %6
  %15 = icmp slt i64 %7, 0
  br i1 %15, label %16, label %17

16:                                               ; preds = %14
  tail call void @ERR_new() #7
  tail call void @ERR_set_debug(ptr noundef nonnull @.str, i32 noundef 359, ptr noundef nonnull @__func__.parse_tagging) #7
  tail call void (i32, i32, ptr, ...) @ERR_set_error(i32 noundef 13, i32 noundef 187, ptr noundef null) #7
  br label %32

17:                                               ; preds = %14
  %18 = trunc i64 %7 to i32
  store i32 %18, ptr %2, align 4, !tbaa !3
  %19 = ptrtoint ptr %8 to i64
  %20 = ptrtoint ptr %0 to i64
  %.neg.neg = sub i64 %19, %20
  %.neg24 = trunc i64 %.neg.neg to i32
  %21 = icmp eq i32 %1, %.neg24
  %.015 = or i1 %.not20, %21
  br i1 %.015, label %31, label %22

22:                                               ; preds = %17
  %23 = load i8, ptr %8, align 1, !tbaa !23
  switch i8 %23, label %28 [
    i8 85, label %24
    i8 65, label %25
    i8 80, label %26
    i8 67, label %27
  ]

24:                                               ; preds = %22
  store i32 0, ptr %3, align 4, !tbaa !3
  br label %32

25:                                               ; preds = %22
  store i32 64, ptr %3, align 4, !tbaa !3
  br label %32

26:                                               ; preds = %22
  store i32 192, ptr %3, align 4, !tbaa !3
  br label %32

27:                                               ; preds = %22
  store i32 128, ptr %3, align 4, !tbaa !3
  br label %32

28:                                               ; preds = %22
  tail call void @ERR_new() #7
  tail call void @ERR_set_debug(ptr noundef nonnull @.str, i32 noundef 388, ptr noundef nonnull @__func__.parse_tagging) #7
  %29 = load i8, ptr %8, align 1, !tbaa !23
  %30 = sext i8 %29 to i32
  tail call void (i32, i32, ptr, ...) @ERR_set_error(i32 noundef 13, i32 noundef 186, ptr noundef nonnull @.str.54, i32 noundef %30) #7
  br label %32

31:                                               ; preds = %17
  store i32 128, ptr %3, align 4, !tbaa !3
  br label %32

32:                                               ; preds = %31, %27, %26, %25, %24, %9, %4, %28, %16
  %.0 = phi i32 [ 0, %16 ], [ 0, %28 ], [ 0, %4 ], [ 0, %9 ], [ 1, %24 ], [ 1, %25 ], [ 1, %26 ], [ 1, %27 ], [ 1, %31 ]
  call void @llvm.lifetime.end.p0(i64 8, ptr nonnull %5) #7
  ret i32 %.0
}